(lp0
(dp1
S'name'
p2
S'Lester the Tester'
p3
sS'hp'
p4
I10
sS'inroom'
p5
ccopy_reg
_reconstructor
p6
(c__main__
Room
p7
c__builtin__
object
p8
Ntp9
Rp10
(dp11
S'e'
p12
S''
p13
sS'title'
p14
S'A Prison Cell'
p15
sS'rinv'
p16
(lp17
g6
(c__main__
Item
p18
g8
Ntp19
Rp20
(dp21
S'sdesc'
p22
S'a concrete door'
p23
sS'ldesc'
p24
S'A windowless concrete door is locked and bars the way to the north.'
p25
sS'used'
p26
I0
sS'cantake'
p27
I00
sbag6
(g18
g8
Ntp28
Rp29
(dp30
g22
S'a metal cot'
p31
sg24
S'A metal framed cot with a stained mattress is here.'
p32
sg26
I0
sg27
I00
sbag6
(g18
g8
Ntp33
Rp34
(dp35
g22
S'a stainless steel spoon'
p36
sg24
S'A dull metal spoon lies on the floor here.'
p37
sg26
I0
sg27
I01
sbasS'n'
p38
g13
sS's'
p39
g13
sS'w'
p40
g13
sS'rdesc'
p41
S'You are in a damp cell that is filled with the stench of unwashed human bodies. There are strange stains over the concrete floor. Your only light source is a flickering incandescent bulb screwed within a grate covered aluminum fixture.'
p42
sS'data'
p43
(dp44
g12
g13
sg14
g15
sg16
(lp45
g20
ag29
ag34
asg38
g13
sg39
g13
sg40
g13
sg41
g42
ssbsS'pc'
p46
g46
sg24
S'yourself'
p47
sS'inventory'
p48
(lp49
g6
(g18
g8
Ntp50
Rp51
(dp52
g22
S'a long, frayed rope'
p53
sg24
S'A long length of frayed rope lies on the floor here.'
p54
sg26
I0
sg27
I01
sbasa(dp55
S'item07'
p56
(dp57
g22
S'a crude metal shank'
p58
sg24
S'A spoon that has been sharpened into a crude knife is here.'
p59
sg26
I0
sg27
I01
ssS'item06'
p60
(dp61
g22
g23
sg24
S'A windowless concrete door opens to a hallway to the north.'
p62
sg26
I0
sg27
I00
ssS'item09'
p63
(dp64
g22
S'a yellow plastic ball'
p65
sg24
S'A yellow plastic ball is in the ballpit.'
p66
sg26
I0
sg27
I01
ssS'item08'
p67
(dp68
g22
S'a red plastic ball'
p69
sg24
S'A red plastic ball is in the ballpit.'
p70
sg26
I0
sg27
I01
ssS'item12'
p71
(dp72
g22
S'a piece of pizza'
p73
sg24
S'A piece of pizza has been abandoned in the ballpit.'
p74
sg26
I0
sg27
I01
ssS'item03'
p75
(dp76
g22
g31
sg24
g32
sg26
I0
sg27
I00
ssS'item02'
p77
(dp78
g22
g53
sg24
g54
sg26
I0
sg27
I01
ssS'item01'
p79
(dp80
g22
g36
sg24
g37
sg26
I0
sg27
I01
ssS'item13'
p81
(dp82
g22
S'a smelly sock'
p83
sg24
S'A smelly sock has been left in the ballpit.'
p84
sg26
I0
sg27
I01
ssS'item10'
p85
(dp86
g22
S'a blue plastic ball'
p87
sg24
S'A blue plastic ball is in the ballpit.'
p88
sg26
I0
sg27
I01
ssS'item11'
p89
(dp90
g22
S'a green plastic ball'
p91
sg24
S'A green plastic ball is in the ballpit.'
p92
sg26
I0
sg27
I01
ssS'item05'
p93
(dp94
g22
S'a worn metal key'
p95
sg24
S'A worn metal key glimmers faintly on the floor.'
p96
sg26
I0
sg27
I01
ssS'item04'
p97
(dp98
g22
g23
sg24
g25
sg26
I0
sg27
I00
ssa(dp99
S'room10'
p100
(dp101
g12
g13
sg14
S'Eastern side of a Ballpit'
p102
sg16
(lp103
sg38
g6
(g7
g8
Ntp104
Rp105
(dp106
g12
g13
sg14
S'Northeastern corner of a Ballpit'
p107
sg16
(lp108
sg38
g13
sg39
g6
(g7
g8
Ntp109
Rp110
(dp111
g12
g13
sg14
g102
sg16
(lp112
sg38
g105
sg39
g6
(g7
g8
Ntp113
Rp114
(dp115
g12
g13
sg14
S'Southeastern corner of a Ballpit'
p116
sg16
(lp117
sg38
g110
sg39
g13
sg40
g6
(g7
g8
Ntp118
Rp119
(dp120
g12
g114
sg14
S'Southern side of a Ballpit'
p121
sg16
(lp122
sg38
g6
(g7
g8
Ntp123
Rp124
(dp125
g12
g110
sg14
S'Center of a Ballpit'
p126
sg16
(lp127
g6
(g18
g8
Ntp128
Rp129
(dp130
g22
g69
sg24
g70
sg26
I0
sg27
I01
sbag6
(g18
g8
Ntp131
Rp132
(dp133
g22
g65
sg24
g66
sg26
I0
sg27
I01
sbag6
(g18
g8
Ntp134
Rp135
(dp136
g22
g87
sg24
g88
sg26
I0
sg27
I01
sbag6
(g18
g8
Ntp137
Rp138
(dp139
g22
g91
sg24
g92
sg26
I0
sg27
I01
sbasg38
g6
(g7
g8
Ntp140
Rp141
(dp142
g12
g105
sg14
S'Northern side of a Ballpit'
p143
sg16
(lp144
sg38
g13
sg39
g124
sg40
g6
(g7
g8
Ntp145
Rp146
(dp147
g12
g141
sg14
S'Northwestern corner of a Ballpit'
p148
sg16
(lp149
sg38
g13
sg39
g6
(g7
g8
Ntp150
Rp151
(dp152
g12
g124
sg14
S'Western side of a Ballpit'
p153
sg16
(lp154
sg38
g146
sg39
g6
(g7
g8
Ntp155
Rp156
(dp157
g12
g119
sg14
S'Southwestern corner of a Ballpit'
p158
sg16
(lp159
sg38
g151
sg39
g13
sg40
g13
sg41
S'You are at the southwestern corner of the ballpit.'
p160
sg43
(dp161
g12
g119
sg14
g158
sg16
(lp162
sg38
g151
sg39
g13
sg40
g13
sg41
g160
ssbsg40
g13
sg41
S'You are at the Western side of the ballpit.'
p163
sg43
(dp164
g12
g124
sg14
g153
sg16
(lp165
sg38
g146
sg39
g156
sg40
g13
sg41
g163
ssbsg40
g13
sg41
S'You are at the northwest corner of the ballpit.'
p166
sg43
(dp167
g12
g141
sg14
g148
sg16
(lp168
sg38
g13
sg39
g151
sg40
g13
sg41
g166
ssbsg41
S'You are at the northern side of the ballpit.'
p169
sg43
(dp170
g12
g105
sg14
g143
sg16
(lp171
sg38
g13
sg39
g124
sg40
g146
sg41
g169
ssbsg39
g119
sg40
g151
sg41
S"You are in the center of the Google HQ's ballpit."
p172
sg43
(dp173
g12
g110
sg14
g126
sg16
(lp174
g129
ag132
ag135
ag138
asg38
g141
sg39
g119
sg40
g151
sg41
g172
ssbsg39
g13
sg40
g156
sg41
S'You are at the southern side of the ballpit.'
p175
sg43
(dp176
g12
g114
sg14
g121
sg16
(lp177
sg38
g124
sg39
g13
sg40
g156
sg41
g175
ssbsg41
S'You are in the southeastern corner of a ballpit.'
p178
sg43
(dp179
g12
g13
sg14
g116
sg16
(lp180
sg38
g110
sg39
g13
sg40
g119
sg41
g178
ssbsg40
g124
sg41
S'You are at the Eastern side of the ballpit.'
p181
sg43
g101
sbsg40
g141
sg41
S'You are at the northeast corner of the ballpit.'
p182
sg43
(dp183
g12
g13
sg14
g107
sg16
(lp184
sg38
g13
sg39
g110
sg40
g141
sg41
g182
ssbsg39
g114
sg40
g124
sg41
g181
ssS'room11'
p185
g161
sS'room12'
p186
g176
sS'room13'
p187
g179
sS'room09'
p188
g173
sS'room08'
p189
g164
sS'room07'
p190
g183
sS'room06'
p191
g170
sS'room05'
p192
g167
sS'room04'
p193
(dp194
g12
g6
(g7
g8
Ntp195
Rp196
(dp197
g12
g6
(g7
g8
Ntp198
Rp199
(dp200
g12
g13
sg14
S'East End of the Hallway'
p201
sg16
(lp202
sg38
g13
sg39
g13
sg40
g196
sg41
S'You are at the eastern end of the cell lined hallway. The hallway leads to a dead end--however, it appears a large hole has been blasted in the middle of the floor here. The pit is shadowy and you cannot tell what lies beyond.'
p203
sg43
(dp204
g12
g13
sg14
g201
sg16
(lp205
sg38
g13
sg39
g13
sg40
g196
sg41
g203
ssbsg14
S'A Hallway Lined with Cells'
p206
sg16
(lp207
sg38
g13
sg39
g13
sg40
g6
(g7
g8
Ntp208
Rp209
(dp210
g12
g196
sg14
S'West End of the Hallway'
p211
sg16
(lp212
sg38
g13
sg39
g13
sg40
g13
sg41
S'You are at the western end of the hallway. Besides the numerous cell doors to the north and south, there is a strange symbol on the western wall.'
p213
sg43
g194
sbsg41
S'You are in a long hallway lined with solid, windowless doors, each apparently leading to a cell. The hallway stretches to the east and west and the cell you emerged from is to the south.'
p214
sg43
(dp215
g12
g199
sg14
g206
sg16
(lp216
sg38
g13
sg39
g13
sg40
g209
sg41
g214
ssbsg14
g211
sg16
(lp217
sg38
g13
sg39
g13
sg40
g13
sg41
g213
ssS'room03'
p218
g204
sS'room02'
p219
g215
sS'room01'
p220
g44
sa.