(lp0
(dp1
S'name'
p2
S'Tester'
p3
sS'hp'
p4
I10
sS'inroom'
p5
ccopy_reg
_reconstructor
p6
(c__main__
Room
p7
c__builtin__
object
p8
Ntp9
Rp10
(dp11
S'e'
p12
g6
(g7
g8
Ntp13
Rp14
(dp15
g12
S''
p16
sS'title'
p17
S'Eastern side of a Ballpit'
p18
sS'rinv'
p19
(lp20
g6
(c__main__
Item
p21
g8
Ntp22
Rp23
(dp24
S'sdesc'
p25
S'a red plastic ball'
p26
sS'ldesc'
p27
S'A red plastic ball is in the ballpit.'
p28
sS'used'
p29
I0
sS'cantake'
p30
I01
sbag6
(g21
g8
Ntp31
Rp32
(dp33
g25
S'a yellow plastic ball'
p34
sg27
S'A yellow plastic ball is in the ballpit.'
p35
sg29
I0
sg30
I01
sbag6
(g21
g8
Ntp36
Rp37
(dp38
g25
S'a blue plastic ball'
p39
sg27
S'A blue plastic ball is in the ballpit.'
p40
sg29
I0
sg30
I01
sbag6
(g21
g8
Ntp41
Rp42
(dp43
g25
S'a green plastic ball'
p44
sg27
S'A green plastic ball is in the ballpit.'
p45
sg29
I0
sg30
I01
sbasS'n'
p46
g6
(g7
g8
Ntp47
Rp48
(dp49
g12
g16
sg17
S'Northeastern corner of a Ballpit'
p50
sg19
(lp51
g23
ag32
ag37
ag42
asg46
g16
sS's'
p52
g14
sS'w'
p53
g6
(g7
g8
Ntp54
Rp55
(dp56
g12
g48
sg17
S'Northern side of a Ballpit'
p57
sg19
(lp58
g23
ag32
ag37
ag42
asg46
g16
sg52
g10
sg53
g6
(g7
g8
Ntp59
Rp60
(dp61
g12
g55
sg17
S'Northwestern corner of a Ballpit'
p62
sg19
(lp63
g23
ag32
ag37
ag42
asg46
g16
sg52
g6
(g7
g8
Ntp64
Rp65
(dp66
g12
g10
sg17
S'Western side of a Ballpit'
p67
sg19
(lp68
g23
ag32
ag37
ag42
asg46
g60
sg52
g6
(g7
g8
Ntp69
Rp70
(dp71
g12
g6
(g7
g8
Ntp72
Rp73
(dp74
g12
g6
(g7
g8
Ntp75
Rp76
(dp77
g12
g16
sg17
S'Southeastern corner of a Ballpit'
p78
sg19
(lp79
g23
ag32
ag37
ag42
asg46
g14
sg52
g16
sg53
g73
sS'rdesc'
p80
S'You are in the southeastern corner of a ballpit.'
p81
sS'data'
p82
(dp83
g12
g16
sg17
g78
sg19
(lp84
g23
ag32
ag37
ag42
asg46
g14
sg52
g16
sg53
g73
sg80
g81
ssS'pinv'
p85
(lp86
sbsg17
S'Southern side of a Ballpit'
p87
sg19
(lp88
g23
ag32
ag37
ag42
asg46
g10
sg52
g16
sg53
g70
sg80
S'You are at the southern side of the ballpit.'
p89
sg82
(dp90
g12
g76
sg17
g87
sg19
(lp91
g23
ag32
ag37
ag42
asg46
g10
sg52
g16
sg53
g70
sg80
g89
ssg85
(lp92
sbsg17
S'Southwestern corner of a Ballpit'
p93
sg19
(lp94
g23
ag32
ag37
ag42
asg46
g65
sg52
g16
sg53
g16
sg80
S'You are at the southwestern corner of the ballpit.'
p95
sg82
(dp96
g12
g73
sg17
g93
sg19
(lp97
g23
ag32
ag37
ag42
asg46
g65
sg52
g16
sg53
g16
sg80
g95
ssg85
(lp98
sbsg53
g16
sg80
S'You are at the Western side of the ballpit.'
p99
sg82
(dp100
g12
g10
sg17
g67
sg19
(lp101
g23
ag32
ag37
ag42
asg46
g60
sg52
g70
sg53
g16
sg80
g99
ssg85
(lp102
sbsg53
g16
sg80
S'You are at the northwest corner of the ballpit.'
p103
sg82
(dp104
g12
g55
sg17
g62
sg19
(lp105
g23
ag32
ag37
ag42
asg46
g16
sg52
g65
sg53
g16
sg80
g103
ssg85
(lp106
sbsg80
S'You are at the northern side of the ballpit.'
p107
sg82
(dp108
g12
g48
sg17
g57
sg19
(lp109
g23
ag32
ag37
ag42
asg46
g16
sg52
g10
sg53
g60
sg80
g107
ssg85
(lp110
sbsg80
S'You are at the northeast corner of the ballpit.'
p111
sg82
(dp112
g12
g16
sg17
g50
sg19
(lp113
g23
ag32
ag37
ag42
asg46
g16
sg52
g14
sg53
g55
sg80
g111
ssg85
(lp114
sbsg52
g76
sg53
g10
sg80
S'You are at the Eastern side of the ballpit.'
p115
sg82
(dp116
g12
g16
sg17
g18
sg19
(lp117
g23
ag32
ag37
ag42
asg46
g48
sg52
g76
sg53
g10
sg80
g115
ssg85
(lp118
sbsg17
S'Center of a Ballpit'
p119
sg19
(lp120
g32
ag37
ag42
asg46
g55
sg52
g73
sg53
g65
sg80
S"You are in the center of the Google HQ's ballpit."
p121
sg82
(dp122
g12
g14
sg17
g119
sg19
(lp123
g32
ag37
ag42
asg46
g55
sg52
g73
sg53
g65
sg80
g121
ssg85
(lp124
S'A tiny demon bounces around the ballpit here.'
p125
asbsS'pc'
p126
g126
sg27
S'yourself'
p127
sS'inventory'
p128
(lp129
sa(dp130
S'item07'
p131
(dp132
g25
S'a crude metal shank'
p133
sg27
S'A spoon that has been sharpened into a crude knife is here.'
p134
sg29
I0
sg30
I01
ssS'item06'
p135
(dp136
g25
S'a concrete door'
p137
sg27
S'A windowless concrete door opens to a hallway to the north.'
p138
sg29
I0
sg30
I00
ssS'item09'
p139
(dp140
g25
g34
sg27
g35
sg29
I0
sg30
I01
ssS'item08'
p141
(dp142
g25
g26
sg27
g28
sg29
I0
sg30
I01
ssS'item12'
p143
(dp144
g25
S'a piece of pizza'
p145
sg27
S'A piece of pizza has been abandoned in the ballpit.'
p146
sg29
I0
sg30
I01
ssS'item03'
p147
(dp148
g25
S'a metal cot'
p149
sg27
S'A metal framed cot with a stained mattress is here.'
p150
sg29
I1
sg30
I00
ssS'item02'
p151
(dp152
g25
S'a long, frayed rope'
p153
sg27
S'A long length of frayed rope lies on the floor here.'
p154
sg29
I0
sg30
I01
ssS'item01'
p155
(dp156
g25
S'a stainless steel spoon'
p157
sg27
S'A dull metal spoon lies on the floor here.'
p158
sg29
I0
sg30
I01
ssS'item13'
p159
(dp160
g25
S'a smelly sock'
p161
sg27
S'A smelly sock has been left in the ballpit.'
p162
sg29
I0
sg30
I01
ssS'item10'
p163
(dp164
g25
g39
sg27
g40
sg29
I0
sg30
I01
ssS'item11'
p165
(dp166
g25
g44
sg27
g45
sg29
I0
sg30
I01
ssS'item05'
p167
(dp168
g25
S'a worn metal key'
p169
sg27
S'A worn metal key glimmers faintly on the floor.'
p170
sg29
I0
sg30
I01
ssS'item04'
p171
(dp172
g25
g137
sg27
S'A windowless concrete door is locked and bars the way to the north.'
p173
sg29
I0
sg30
I00
ssa(dp174
S'room10'
p175
g116
sS'room11'
p176
g96
sS'room12'
p177
g90
sS'room13'
p178
g83
sS'room09'
p179
g122
sS'room08'
p180
g100
sS'room07'
p181
g112
sS'room06'
p182
g108
sS'room05'
p183
g104
sS'room04'
p184
(dp185
g12
g6
(g7
g8
Ntp186
Rp187
(dp188
g12
g6
(g7
g8
Ntp189
Rp190
(dp191
g12
g16
sg17
S'East End of the Hallway'
p192
sg19
(lp193
sg46
g16
sg52
g16
sg53
g187
sg80
S'You are at the eastern end of the cell lined hallway. The hallway leads to a dead end--however, it appears a large hole has been blasted in the middle of the floor here. The pit is shadowy and you cannot tell what lies beyond.'
p194
sg82
(dp195
g12
g16
sg17
g192
sg19
(lp196
sg46
g16
sg52
g16
sg53
g187
sg80
g194
ssg85
(lp197
sbsg17
S'A Hallway Lined with Cells'
p198
sg19
(lp199
sg46
g16
sg52
g6
(g7
g8
Ntp200
Rp201
(dp202
g12
g16
sg17
S'A Prison Cell'
p203
sg19
(lp204
g6
(g21
g8
Ntp205
Rp206
(dp207
g25
g149
sg27
g150
sg29
I1
sg30
I00
sbag6
(g21
g8
Ntp208
Rp209
(dp210
g25
g157
sg27
g158
sg29
I0
sg30
I01
sbag6
(g21
g8
Ntp211
Rp212
(dp213
g25
g137
sg27
g138
sg29
I0
sg30
I00
sbasg46
g187
sg52
g16
sg53
g16
sg80
S"You are in a damp cell that is filled with the stench of unwashed human '\n' bodies. There are strange stains over the concrete floor. Your only light source is a flickering incandescent bulb screwed within a grate covered aluminum fixture."
p214
sg82
(dp215
g12
g16
sg17
g203
sg19
(lp216
g206
ag209
ag212
asg46
g187
sg52
g16
sg53
g16
sg80
g214
ssg85
(lp217
sbsg53
g6
(g7
g8
Ntp218
Rp219
(dp220
g12
g187
sg17
S'West End of the Hallway'
p221
sg19
(lp222
g23
ag32
ag37
ag42
asg46
g16
sg52
g16
sg53
g16
sg80
S'You are at the western end of the hallway. Besides the numerous cell doors to the north and south, there is a strange symbol on the western wall.'
p223
sg82
g185
sg85
(lp224
sbsg80
S'You are in a long hallway lined with solid, windowless doors, each apparently leading to a cell. The hallway stretches to the east and west and the cell you emerged from is to the south.'
p225
sg82
(dp226
g12
g190
sg17
g198
sg19
(lp227
sg46
g16
sg52
g201
sg53
g219
sg80
g225
ssg85
(lp228
sbsg17
g221
sg19
(lp229
g23
ag32
ag37
ag42
asg46
g16
sg52
g16
sg53
g16
sg80
g223
ssS'room03'
p230
g195
sS'room02'
p231
g226
sS'room01'
p232
g215
sa.